; ModuleID = '51/718.c'
source_filename = "51/718.c"
target datalayout = "e-m:e-p270:32:32-p271:32:32-p272:64:64-i64:64-f80:128-n8:16:32:64-S128"
target triple = "x86_64-pc-linux-gnu"

@.str = private unnamed_addr constant [6 x i8] c"%d %s\00", align 1
@.str.1 = private unnamed_addr constant [3 x i8] c"NO\00", align 1
@.str.2 = private unnamed_addr constant [4 x i8] c"%d\0A\00", align 1
@.str.3 = private unnamed_addr constant [4 x i8] c"%s\0A\00", align 1

; Function Attrs: noinline nounwind uwtable
define dso_local i32 @main() #0 {
  %1 = alloca i32, align 4
  %2 = alloca i32, align 4
  %3 = alloca [550 x i8], align 16
  %4 = alloca [5 x i8], align 1
  %5 = alloca [550 x [5 x i8]], align 16
  %6 = alloca [550 x i32], align 16
  %7 = alloca i32, align 4
  %8 = alloca i32, align 4
  %9 = alloca i32, align 4
  %10 = alloca i32, align 4
  store i32 0, i32* %1, align 4
  %11 = bitcast [550 x i32]* %6 to i8*
  call void @llvm.memset.p0i8.i64(i8* align 16 %11, i8 0, i64 2200, i1 false)
  %12 = getelementptr inbounds [550 x i8], [550 x i8]* %3, i64 0, i64 0
  %13 = call i32 (i8*, ...) @__isoc99_scanf(i8* getelementptr inbounds ([6 x i8], [6 x i8]* @.str, i64 0, i64 0), i32* %2, i8* %12)
  %14 = getelementptr inbounds [550 x i8], [550 x i8]* %3, i64 0, i64 0
  %15 = call i64 @strlen(i8* %14) #4
  %16 = trunc i64 %15 to i32
  store i32 %16, i32* %7, align 4
  store i32 0, i32* %8, align 4
  br label %17

17:                                               ; preds = %52, %0
  %18 = load i32, i32* %8, align 4
  %19 = load i32, i32* %7, align 4
  %20 = load i32, i32* %2, align 4
  %21 = sub nsw i32 %19, %20
  %22 = add nsw i32 %21, 1
  %23 = icmp slt i32 %18, %22
  br i1 %23, label %24, label %55

24:                                               ; preds = %17
  store i32 0, i32* %9, align 4
  br label %25

25:                                               ; preds = %42, %24
  %26 = load i32, i32* %9, align 4
  %27 = load i32, i32* %2, align 4
  %28 = icmp slt i32 %26, %27
  br i1 %28, label %29, label %45

29:                                               ; preds = %25
  %30 = load i32, i32* %8, align 4
  %31 = load i32, i32* %9, align 4
  %32 = add nsw i32 %30, %31
  %33 = sext i32 %32 to i64
  %34 = getelementptr inbounds [550 x i8], [550 x i8]* %3, i64 0, i64 %33
  %35 = load i8, i8* %34, align 1
  %36 = load i32, i32* %8, align 4
  %37 = sext i32 %36 to i64
  %38 = getelementptr inbounds [550 x [5 x i8]], [550 x [5 x i8]]* %5, i64 0, i64 %37
  %39 = load i32, i32* %9, align 4
  %40 = sext i32 %39 to i64
  %41 = getelementptr inbounds [5 x i8], [5 x i8]* %38, i64 0, i64 %40
  store i8 %35, i8* %41, align 1
  br label %42

42:                                               ; preds = %29
  %43 = load i32, i32* %9, align 4
  %44 = add nsw i32 %43, 1
  store i32 %44, i32* %9, align 4
  br label %25

45:                                               ; preds = %25
  %46 = load i32, i32* %8, align 4
  %47 = sext i32 %46 to i64
  %48 = getelementptr inbounds [550 x [5 x i8]], [550 x [5 x i8]]* %5, i64 0, i64 %47
  %49 = load i32, i32* %2, align 4
  %50 = sext i32 %49 to i64
  %51 = getelementptr inbounds [5 x i8], [5 x i8]* %48, i64 0, i64 %50
  store i8 0, i8* %51, align 1
  br label %52

52:                                               ; preds = %45
  %53 = load i32, i32* %8, align 4
  %54 = add nsw i32 %53, 1
  store i32 %54, i32* %8, align 4
  br label %17

55:                                               ; preds = %17
  store i32 0, i32* %10, align 4
  store i32 0, i32* %8, align 4
  br label %56

56:                                               ; preds = %106, %55
  %57 = load i32, i32* %8, align 4
  %58 = load i32, i32* %7, align 4
  %59 = load i32, i32* %2, align 4
  %60 = sub nsw i32 %58, %59
  %61 = add nsw i32 %60, 1
  %62 = icmp slt i32 %57, %61
  br i1 %62, label %63, label %109

63:                                               ; preds = %56
  %64 = load i32, i32* %8, align 4
  store i32 %64, i32* %9, align 4
  br label %65

65:                                               ; preds = %90, %63
  %66 = load i32, i32* %9, align 4
  %67 = load i32, i32* %7, align 4
  %68 = load i32, i32* %2, align 4
  %69 = sub nsw i32 %67, %68
  %70 = add nsw i32 %69, 1
  %71 = icmp slt i32 %66, %70
  br i1 %71, label %72, label %93

72:                                               ; preds = %65
  %73 = load i32, i32* %8, align 4
  %74 = sext i32 %73 to i64
  %75 = getelementptr inbounds [550 x [5 x i8]], [550 x [5 x i8]]* %5, i64 0, i64 %74
  %76 = getelementptr inbounds [5 x i8], [5 x i8]* %75, i64 0, i64 0
  %77 = load i32, i32* %9, align 4
  %78 = sext i32 %77 to i64
  %79 = getelementptr inbounds [550 x [5 x i8]], [550 x [5 x i8]]* %5, i64 0, i64 %78
  %80 = getelementptr inbounds [5 x i8], [5 x i8]* %79, i64 0, i64 0
  %81 = call i32 @strcmp(i8* %76, i8* %80) #4
  %82 = icmp eq i32 %81, 0
  br i1 %82, label %83, label %89

83:                                               ; preds = %72
  %84 = load i32, i32* %8, align 4
  %85 = sext i32 %84 to i64
  %86 = getelementptr inbounds [550 x i32], [550 x i32]* %6, i64 0, i64 %85
  %87 = load i32, i32* %86, align 4
  %88 = add nsw i32 %87, 1
  store i32 %88, i32* %86, align 4
  br label %89

89:                                               ; preds = %83, %72
  br label %90

90:                                               ; preds = %89
  %91 = load i32, i32* %9, align 4
  %92 = add nsw i32 %91, 1
  store i32 %92, i32* %9, align 4
  br label %65

93:                                               ; preds = %65
  %94 = load i32, i32* %8, align 4
  %95 = sext i32 %94 to i64
  %96 = getelementptr inbounds [550 x i32], [550 x i32]* %6, i64 0, i64 %95
  %97 = load i32, i32* %96, align 4
  %98 = load i32, i32* %10, align 4
  %99 = icmp sgt i32 %97, %98
  br i1 %99, label %100, label %105

100:                                              ; preds = %93
  %101 = load i32, i32* %8, align 4
  %102 = sext i32 %101 to i64
  %103 = getelementptr inbounds [550 x i32], [550 x i32]* %6, i64 0, i64 %102
  %104 = load i32, i32* %103, align 4
  store i32 %104, i32* %10, align 4
  br label %105

105:                                              ; preds = %100, %93
  br label %106

106:                                              ; preds = %105
  %107 = load i32, i32* %8, align 4
  %108 = add nsw i32 %107, 1
  store i32 %108, i32* %8, align 4
  br label %56

109:                                              ; preds = %56
  %110 = load i32, i32* %10, align 4
  %111 = icmp eq i32 %110, 1
  br i1 %111, label %112, label %114

112:                                              ; preds = %109
  %113 = call i32 (i8*, ...) @printf(i8* getelementptr inbounds ([3 x i8], [3 x i8]* @.str.1, i64 0, i64 0))
  store i32 0, i32* %1, align 4
  br label %141

114:                                              ; preds = %109
  %115 = load i32, i32* %10, align 4
  %116 = call i32 (i8*, ...) @printf(i8* getelementptr inbounds ([4 x i8], [4 x i8]* @.str.2, i64 0, i64 0), i32 %115)
  store i32 0, i32* %8, align 4
  br label %117

117:                                              ; preds = %138, %114
  %118 = load i32, i32* %8, align 4
  %119 = load i32, i32* %7, align 4
  %120 = load i32, i32* %2, align 4
  %121 = sub nsw i32 %119, %120
  %122 = add nsw i32 %121, 1
  %123 = icmp slt i32 %118, %122
  br i1 %123, label %124, label %141

124:                                              ; preds = %117
  %125 = load i32, i32* %8, align 4
  %126 = sext i32 %125 to i64
  %127 = getelementptr inbounds [550 x i32], [550 x i32]* %6, i64 0, i64 %126
  %128 = load i32, i32* %127, align 4
  %129 = load i32, i32* %10, align 4
  %130 = icmp eq i32 %128, %129
  br i1 %130, label %131, label %137

131:                                              ; preds = %124
  %132 = load i32, i32* %8, align 4
  %133 = sext i32 %132 to i64
  %134 = getelementptr inbounds [550 x [5 x i8]], [550 x [5 x i8]]* %5, i64 0, i64 %133
  %135 = getelementptr inbounds [5 x i8], [5 x i8]* %134, i64 0, i64 0
  %136 = call i32 (i8*, ...) @printf(i8* getelementptr inbounds ([4 x i8], [4 x i8]* @.str.3, i64 0, i64 0), i8* %135)
  br label %137

137:                                              ; preds = %131, %124
  br label %138

138:                                              ; preds = %137
  %139 = load i32, i32* %8, align 4
  %140 = add nsw i32 %139, 1
  store i32 %140, i32* %8, align 4
  br label %117

141:                                              ; preds = %112, %117
  %142 = load i32, i32* %1, align 4
  ret i32 %142
}

; Function Attrs: argmemonly nounwind willreturn
declare void @llvm.memset.p0i8.i64(i8* nocapture writeonly, i8, i64, i1 immarg) #1

declare dso_local i32 @__isoc99_scanf(i8*, ...) #2

; Function Attrs: nounwind readonly
declare dso_local i64 @strlen(i8*) #3

; Function Attrs: nounwind readonly
declare dso_local i32 @strcmp(i8*, i8*) #3

declare dso_local i32 @printf(i8*, ...) #2


!llvm.module.flags = !{!0}
!llvm.ident = !{!1}

!0 = !{i32 1, !"wchar_size", i32 4}
!1 = !{!"clang version 10.0.0-4ubuntu1 "}
