; ModuleID = 'source-C-CXX/50/718.c'
source_filename = "source-C-CXX/50/718.c"
target datalayout = "e-m:e-p270:32:32-p271:32:32-p272:64:64-i64:64-f80:128-n8:16:32:64-S128"
target triple = "x86_64-pc-linux-gnu"

@.str = private unnamed_addr constant [6 x i8] c"%d %s\00", align 1
@.str.1 = private unnamed_addr constant [3 x i8] c"NO\00", align 1
@.str.2 = private unnamed_addr constant [4 x i8] c"%d\0A\00", align 1

; Function Attrs: nofree nounwind sspstrong uwtable
define dso_local i32 @main() local_unnamed_addr #0 {
  %1 = alloca i32, align 4
  %2 = alloca [550 x i8], align 16
  %3 = alloca [550 x [5 x i8]], align 16
  %4 = alloca [550 x i32], align 16
  %5 = bitcast i32* %1 to i8*
  call void @llvm.lifetime.start.p0i8(i64 4, i8* nonnull %5) #7
  %6 = getelementptr inbounds [550 x i8], [550 x i8]* %2, i64 0, i64 0
  call void @llvm.lifetime.start.p0i8(i64 550, i8* nonnull %6) #7
  %7 = getelementptr inbounds [550 x [5 x i8]], [550 x [5 x i8]]* %3, i64 0, i64 0, i64 0
  call void @llvm.lifetime.start.p0i8(i64 2750, i8* nonnull %7) #7
  %8 = bitcast [550 x i32]* %4 to i8*
  call void @llvm.lifetime.start.p0i8(i64 2200, i8* nonnull %8) #7
  call void @llvm.memset.p0i8.i64(i8* noundef nonnull align 16 dereferenceable(2200) %8, i8 0, i64 2200, i1 false)
  %9 = call i32 (i8*, ...) @__isoc99_scanf(i8* getelementptr inbounds ([6 x i8], [6 x i8]* @.str, i64 0, i64 0), i32* nonnull %1, i8* nonnull %6)
  %10 = call i64 @strlen(i8* noundef nonnull %6) #8
  %11 = trunc i64 %10 to i32
  %12 = load i32, i32* %1, align 4, !tbaa !5
  %13 = sub nsw i32 %11, %12
  %14 = sext i32 %12 to i64
  %15 = icmp slt i32 %13, 0
  br i1 %15, label %111, label %16

16:                                               ; preds = %0
  %17 = icmp sgt i32 %12, 0
  br i1 %17, label %27, label %18

18:                                               ; preds = %16
  %19 = add i32 %11, 1
  %20 = sub i32 %19, %12
  %21 = zext i32 %20 to i64
  %22 = add nsw i64 %21, -1
  %23 = and i64 %21, 3
  %24 = icmp ult i64 %22, 3
  br i1 %24, label %69, label %25

25:                                               ; preds = %18
  %26 = and i64 %21, 4294967292
  br label %49

27:                                               ; preds = %16
  %28 = zext i32 %12 to i64
  %29 = add i32 %11, 1
  %30 = sub i32 %29, %12
  %31 = zext i32 %30 to i64
  %32 = and i64 %31, 1
  %33 = icmp eq i32 %30, 1
  br i1 %33, label %62, label %34

34:                                               ; preds = %27
  %35 = and i64 %31, 4294967294
  br label %36

36:                                               ; preds = %36, %34
  %37 = phi i64 [ 0, %34 ], [ %46, %36 ]
  %38 = phi i64 [ %35, %34 ], [ %47, %36 ]
  %39 = getelementptr [550 x [5 x i8]], [550 x [5 x i8]]* %3, i64 0, i64 %37, i64 0
  %40 = getelementptr [550 x i8], [550 x i8]* %2, i64 0, i64 %37
  call void @llvm.memcpy.p0i8.p0i8.i64(i8* align 2 %39, i8* align 2 %40, i64 %28, i1 false)
  %41 = getelementptr inbounds [550 x [5 x i8]], [550 x [5 x i8]]* %3, i64 0, i64 %37, i64 %14
  store i8 0, i8* %41, align 1, !tbaa !9
  %42 = or i64 %37, 1
  %43 = getelementptr [550 x [5 x i8]], [550 x [5 x i8]]* %3, i64 0, i64 %42, i64 0
  %44 = getelementptr [550 x i8], [550 x i8]* %2, i64 0, i64 %42
  call void @llvm.memcpy.p0i8.p0i8.i64(i8* align 1 %43, i8* align 1 %44, i64 %28, i1 false)
  %45 = getelementptr inbounds [550 x [5 x i8]], [550 x [5 x i8]]* %3, i64 0, i64 %42, i64 %14
  store i8 0, i8* %45, align 1, !tbaa !9
  %46 = add nuw nsw i64 %37, 2
  %47 = add i64 %38, -2
  %48 = icmp eq i64 %47, 0
  br i1 %48, label %62, label %36, !llvm.loop !10

49:                                               ; preds = %49, %25
  %50 = phi i64 [ 0, %25 ], [ %59, %49 ]
  %51 = phi i64 [ %26, %25 ], [ %60, %49 ]
  %52 = getelementptr inbounds [550 x [5 x i8]], [550 x [5 x i8]]* %3, i64 0, i64 %50, i64 %14
  store i8 0, i8* %52, align 1, !tbaa !9
  %53 = or i64 %50, 1
  %54 = getelementptr inbounds [550 x [5 x i8]], [550 x [5 x i8]]* %3, i64 0, i64 %53, i64 %14
  store i8 0, i8* %54, align 1, !tbaa !9
  %55 = or i64 %50, 2
  %56 = getelementptr inbounds [550 x [5 x i8]], [550 x [5 x i8]]* %3, i64 0, i64 %55, i64 %14
  store i8 0, i8* %56, align 1, !tbaa !9
  %57 = or i64 %50, 3
  %58 = getelementptr inbounds [550 x [5 x i8]], [550 x [5 x i8]]* %3, i64 0, i64 %57, i64 %14
  store i8 0, i8* %58, align 1, !tbaa !9
  %59 = add nuw nsw i64 %50, 4
  %60 = add i64 %51, -4
  %61 = icmp eq i64 %60, 0
  br i1 %61, label %69, label %49, !llvm.loop !10

62:                                               ; preds = %36, %27
  %63 = phi i64 [ 0, %27 ], [ %46, %36 ]
  %64 = icmp eq i64 %32, 0
  br i1 %64, label %79, label %65

65:                                               ; preds = %62
  %66 = getelementptr [550 x [5 x i8]], [550 x [5 x i8]]* %3, i64 0, i64 %63, i64 0
  %67 = getelementptr [550 x i8], [550 x i8]* %2, i64 0, i64 %63
  call void @llvm.memcpy.p0i8.p0i8.i64(i8* align 1 %66, i8* align 1 %67, i64 %28, i1 false)
  %68 = getelementptr inbounds [550 x [5 x i8]], [550 x [5 x i8]]* %3, i64 0, i64 %63, i64 %14
  store i8 0, i8* %68, align 1, !tbaa !9
  br label %79

69:                                               ; preds = %49, %18
  %70 = phi i64 [ 0, %18 ], [ %59, %49 ]
  %71 = icmp eq i64 %23, 0
  br i1 %71, label %79, label %72

72:                                               ; preds = %69, %72
  %73 = phi i64 [ %76, %72 ], [ %70, %69 ]
  %74 = phi i64 [ %77, %72 ], [ %23, %69 ]
  %75 = getelementptr inbounds [550 x [5 x i8]], [550 x [5 x i8]]* %3, i64 0, i64 %73, i64 %14
  store i8 0, i8* %75, align 1, !tbaa !9
  %76 = add nuw nsw i64 %73, 1
  %77 = add i64 %74, -1
  %78 = icmp eq i64 %77, 0
  br i1 %78, label %79, label %72, !llvm.loop !12

79:                                               ; preds = %69, %72, %65, %62
  br i1 %15, label %111, label %80

80:                                               ; preds = %79
  %81 = zext i32 %13 to i64
  %82 = add i32 %11, 1
  %83 = sub i32 %82, %12
  %84 = zext i32 %83 to i64
  br label %85

85:                                               ; preds = %101, %80
  %86 = phi i64 [ 0, %80 ], [ %105, %101 ]
  %87 = phi i32 [ 0, %80 ], [ %104, %101 ]
  %88 = getelementptr inbounds [550 x [5 x i8]], [550 x [5 x i8]]* %3, i64 0, i64 %86, i64 0
  %89 = getelementptr inbounds [550 x i32], [550 x i32]* %4, i64 0, i64 %86
  br label %90

90:                                               ; preds = %85, %98
  %91 = phi i64 [ %86, %85 ], [ %99, %98 ]
  %92 = getelementptr inbounds [550 x [5 x i8]], [550 x [5 x i8]]* %3, i64 0, i64 %91, i64 0
  %93 = call i32 @strcmp(i8* noundef nonnull %88, i8* noundef nonnull %92) #8
  %94 = icmp eq i32 %93, 0
  br i1 %94, label %95, label %98

95:                                               ; preds = %90
  %96 = load i32, i32* %89, align 4, !tbaa !5
  %97 = add nsw i32 %96, 1
  store i32 %97, i32* %89, align 4, !tbaa !5
  br label %98

98:                                               ; preds = %90, %95
  %99 = add nuw nsw i64 %91, 1
  %100 = icmp ult i64 %91, %81
  br i1 %100, label %90, label %101, !llvm.loop !14

101:                                              ; preds = %98
  %102 = load i32, i32* %89, align 4, !tbaa !5
  %103 = icmp sgt i32 %102, %87
  %104 = select i1 %103, i32 %102, i32 %87
  %105 = add nuw nsw i64 %86, 1
  %106 = icmp eq i64 %105, %84
  br i1 %106, label %107, label %85, !llvm.loop !15

107:                                              ; preds = %101
  %108 = icmp eq i32 %104, 1
  br i1 %108, label %109, label %111

109:                                              ; preds = %107
  %110 = call i32 (i8*, ...) @printf(i8* nonnull dereferenceable(1) getelementptr inbounds ([3 x i8], [3 x i8]* @.str.1, i64 0, i64 0))
  br label %132

111:                                              ; preds = %0, %79, %107
  %112 = phi i32 [ %104, %107 ], [ 0, %79 ], [ 0, %0 ]
  %113 = call i32 (i8*, ...) @printf(i8* nonnull dereferenceable(1) getelementptr inbounds ([4 x i8], [4 x i8]* @.str.2, i64 0, i64 0), i32 %112)
  %114 = load i32, i32* %1, align 4, !tbaa !5
  %115 = icmp sgt i32 %114, %11
  br i1 %115, label %132, label %116

116:                                              ; preds = %111, %126
  %117 = phi i32 [ %127, %126 ], [ %114, %111 ]
  %118 = phi i64 [ %128, %126 ], [ 0, %111 ]
  %119 = getelementptr inbounds [550 x i32], [550 x i32]* %4, i64 0, i64 %118
  %120 = load i32, i32* %119, align 4, !tbaa !5
  %121 = icmp eq i32 %120, %112
  br i1 %121, label %122, label %126

122:                                              ; preds = %116
  %123 = getelementptr inbounds [550 x [5 x i8]], [550 x [5 x i8]]* %3, i64 0, i64 %118, i64 0
  %124 = call i32 @puts(i8* nonnull %123)
  %125 = load i32, i32* %1, align 4, !tbaa !5
  br label %126

126:                                              ; preds = %116, %122
  %127 = phi i32 [ %117, %116 ], [ %125, %122 ]
  %128 = add nuw nsw i64 %118, 1
  %129 = sub nsw i32 %11, %127
  %130 = sext i32 %129 to i64
  %131 = icmp slt i64 %118, %130
  br i1 %131, label %116, label %132, !llvm.loop !16

132:                                              ; preds = %126, %111, %109
  call void @llvm.lifetime.end.p0i8(i64 2200, i8* nonnull %8) #7
  call void @llvm.lifetime.end.p0i8(i64 2750, i8* nonnull %7) #7
  call void @llvm.lifetime.end.p0i8(i64 550, i8* nonnull %6) #7
  call void @llvm.lifetime.end.p0i8(i64 4, i8* nonnull %5) #7
  ret i32 0
}

; Function Attrs: argmemonly mustprogress nofree nosync nounwind willreturn
declare void @llvm.lifetime.start.p0i8(i64 immarg, i8* nocapture) #1

; Function Attrs: argmemonly mustprogress nofree nounwind willreturn writeonly
declare void @llvm.memset.p0i8.i64(i8* nocapture writeonly, i8, i64, i1 immarg) #2

; Function Attrs: nofree nounwind
declare noundef i32 @__isoc99_scanf(i8* nocapture noundef readonly, ...) local_unnamed_addr #3

; Function Attrs: argmemonly mustprogress nofree nounwind readonly willreturn
declare i64 @strlen(i8* nocapture) local_unnamed_addr #4

; Function Attrs: argmemonly mustprogress nofree nounwind readonly willreturn
declare i32 @strcmp(i8* nocapture, i8* nocapture) local_unnamed_addr #4

; Function Attrs: nofree nounwind
declare noundef i32 @printf(i8* nocapture noundef readonly, ...) local_unnamed_addr #3

; Function Attrs: argmemonly mustprogress nofree nosync nounwind willreturn
declare void @llvm.lifetime.end.p0i8(i64 immarg, i8* nocapture) #1

; Function Attrs: nofree nounwind
declare noundef i32 @puts(i8* nocapture noundef readonly) local_unnamed_addr #5

; Function Attrs: argmemonly nofree nounwind willreturn
declare void @llvm.memcpy.p0i8.p0i8.i64(i8* noalias nocapture writeonly, i8* noalias nocapture readonly, i64, i1 immarg) #6


!llvm.module.flags = !{!0, !1, !2, !3}
!llvm.ident = !{!4}

!0 = !{i32 1, !"wchar_size", i32 4}
!1 = !{i32 7, !"PIC Level", i32 2}
!2 = !{i32 7, !"PIE Level", i32 2}
!3 = !{i32 7, !"uwtable", i32 1}
!4 = !{!"clang version 13.0.0"}
!5 = !{!6, !6, i64 0}
!6 = !{!"int", !7, i64 0}
!7 = !{!"omnipotent char", !8, i64 0}
!8 = !{!"Simple C/C++ TBAA"}
!9 = !{!7, !7, i64 0}
!10 = distinct !{!10, !11}
!11 = !{!"llvm.loop.mustprogress"}
!12 = distinct !{!12, !13}
!13 = !{!"llvm.loop.unroll.disable"}
!14 = distinct !{!14, !11}
!15 = distinct !{!15, !11}
!16 = distinct !{!16, !11}
